(dp1
I0
Vagent.acquaintance
p2
sI1
Vagent.age
p3
sI2
Vagent.annoying
p4
sI3
Vagent.answer_my_question
p5
sI4
Vagent.bad
p6
sI5
Vagent.be_clever
p7
sI6
Vagent.beautiful
p8
sI7
Vagent.birth_date
p9
sI8
Vagent.boring
p10
sI9
Vagent.boss
p11
sI10
Vagent.busy
p12
sI11
Vagent.can_you_help
p13
sI12
Vagent.chatbot
p14
sI13
Vagent.clever
p15
sI14
Vagent.cost_accounting_standared
p16
sI15
Vagent.cost_center
p17
sI16
Vagent.cost_meaning
p18
sI17
Vagent.cost_transportation
p19
sI18
Vagent.crazy
p20
sI19
Vagent.development_cost
p21
sI20
Vagent.employee_cost
p22
sI21
Vagent.fired
p23
sI22
Vagent.funny
p24
sI23
Vagent.good
p25
sI24
Vagent.happy
p26
sI25
Vagent.hobby
p27
sI26
Vagent.hungry
p28
sI27
Vagent.marry_user
p29
sI28
Vagent.my_friend
p30
sI29
Vagent.native_of_tracebility_of_cost_obj
p31
sI30
Vagent.occupation
p32
sI31
Vagent.origin
p33
sI32
Vagent.ready
p34
sI33
Vagent.real
p35
sI34
Vagent.residence
p36
sI35
Vagent.right
p37
sI36
Vagent.sure
p38
sI37
Vagent.talk_to_me
p39
sI38
Vagent.there
p40
sI39
Vagent.what_can_do
p41
sI40
Vappraisal.bad
p42
sI41
Vappraisal.good
p43
sI42
Vappraisal.no_problem
p44
sI43
Vappraisal.thank_you
p45
sI44
Vappraisal.welcome
p46
sI45
Vappraisal.well_done
p47
sI46
Vconfirmation.cancel
p48
sI47
Vconfirmation.no
p49
sI48
Vconfirmation.yes
p50
sI49
Vdialog.hold_on
p51
sI50
Vdialog.hug
p52
sI51
Vdialog.i_do_not_care
p53
sI52
Vdialog.sorry
p54
sI53
Vdialog.what_do_you_mean
p55
sI54
Vdialog.wrong
p56
sI55
Vemotions.ha_ha
p57
sI56
Vemotions.wow
p58
sI57
Vgreetings.bye
p59
sI58
Vgreetings.goodevening
p60
sI59
Vgreetings.goodmorning
p61
sI60
Vgreetings.goodnight
p62
sI61
Vgreetings.hello
p63
sI62
Vgreetings.how_are_you
p64
sI63
Vgreetings.nice_to_meet_you
p65
sI64
Vgreetings.nice_to_see_you
p66
sI65
Vgreetings.nice_to_talk_to_you
p67
sI66
Vgreetings.whatsup
p68
sI67
Vuser.angry
p69
sI68
Vuser.back
p70
sI69
Vuser.bored
p71
sI70
Vuser.busy
p72
sI71
Vuser.can_not_sleep
p73
sI72
Vuser.does_not_want_to_talk
p74
sI73
Vuser.excited
p75
sI74
Vuser.going_to_bed
p76
sI75
Vuser.good
p77
sI76
Vuser.happy
p78
sI77
Vuser.has_birthday
p79
sI78
Vuser.here
p80
sI79
Vuser.joking
p81
sI80
Vuser.likes_agent
p82
sI81
Vuser.lonely
p83
sI82
Vuser.looks_like
p84
sI83
Vuser.loves_agent
p85
sI84
Vuser.misses_agent
p86
sI85
Vuser.needs_advice
p87
sI86
Vuser.sad
p88
sI87
Vuser.sleepy
p89
sI88
Vuser.testing_agent
p90
sI89
Vuser.tired
p91
sI90
Vuser.waits
p92
sI91
Vuser.wants_to_see_agent_again
p93
sI92
Vuser.wants_to_talk
p94
sI93
Vuser.will_be_back
p95
s.